; Function Attrs: mustprogress uwtable
define noundef i64 @_ZN3net10QuicFramer19GetMaxPlaintextSizeEm(ptr noundef nonnull readonly align 8 captures(none) dereferenceable(408) %0, i64 noundef %1) local_unnamed_addr #0 align 2 {
  %3 = getelementptr inbounds nuw i8, ptr %0, i64 320
  br label %5

4:                                                ; preds = %13
  ret i64 %.2

5:                                                ; preds = %2, %13
  %indvars.iv = phi i64 [ 0, %2 ], [ %indvars.iv.next, %13 ]
  %.013 = phi i64 [ %1, %2 ], [ %.2, %13 ]
  %6 = getelementptr inbounds nuw [3 x %"class.std::unique_ptr.23"], ptr %3, i64 0, i64 %indvars.iv
  %7 = load ptr, ptr %6, align 8, !tbaa !69
  %.not = icmp eq ptr %7, null
  br i1 %.not, label %13, label %8

8:                                                ; preds = %5
  %9 = load ptr, ptr %7, align 8, !tbaa !3
  %10 = getelementptr inbounds nuw i8, ptr %9, i64 56
  %11 = load ptr, ptr %10, align 8
  %12 = tail call noundef i64 %11(ptr noundef nonnull align 8 dereferenceable(8) %7, i64 noundef %1)
  %spec.select = tail call i64 @llvm.umin.i64(i64 %12, i64 %.013)
  br label %13

13:                                               ; preds = %5, %8
  %.2 = phi i64 [ %spec.select, %8 ], [ %.013, %5 ]
  %indvars.iv.next = add nuw nsw i64 %indvars.iv, 1
  %exitcond.not = icmp eq i64 %indvars.iv.next, 3
  br i1 %exitcond.not, label %4, label %5, !llvm.loop !324
}